; ModuleID = 'source-C-CXX/27/642.c'
source_filename = "source-C-CXX/27/642.c"
target datalayout = "e-m:e-p270:32:32-p271:32:32-p272:64:64-i64:64-f80:128-n8:16:32:64-S128"
target triple = "x86_64-pc-linux-gnu"

@.str = private unnamed_addr constant [3 x i8] c"%d\00", align 1
@.str.1 = private unnamed_addr constant [4 x i8] c",%d\00", align 1

; Function Attrs: nounwind sspstrong uwtable
define dso_local void @main() local_unnamed_addr #0 {
  %1 = alloca [10000 x i8], align 16
  %2 = getelementptr inbounds [10000 x i8], [10000 x i8]* %1, i64 0, i64 0
  call void @llvm.lifetime.start.p0i8(i64 10000, i8* nonnull %2) #6
  call void @llvm.memset.p0i8.i64(i8* noundef nonnull align 16 dereferenceable(10000) %2, i8 0, i64 10000, i1 false)
  %3 = call i32 (i8*, ...) bitcast (i32 (...)* @gets to i32 (i8*, ...)*)(i8* nonnull %2) #6
  %4 = call i64 @strlen(i8* noundef nonnull %2) #7
  %5 = trunc i64 %4 to i32
  %6 = icmp slt i32 %5, 0
  br i1 %6, label %31, label %7

7:                                                ; preds = %0
  %8 = add i64 %4, 1
  %9 = and i64 %8, 4294967295
  br label %10

10:                                               ; preds = %7, %27
  %11 = phi i64 [ 0, %7 ], [ %14, %27 ]
  %12 = phi i32 [ 0, %7 ], [ %29, %27 ]
  %13 = phi i32 [ 1, %7 ], [ %28, %27 ]
  %14 = add nuw nsw i64 %11, 1
  %15 = getelementptr inbounds [10000 x i8], [10000 x i8]* %1, i64 0, i64 %14
  %16 = load i8, i8* %15, align 1, !tbaa !5
  switch i8 %16, label %25 [
    i8 32, label %17
    i8 0, label %17
  ]

17:                                               ; preds = %10, %10
  %18 = icmp eq i32 %13, 0
  br i1 %18, label %27, label %19

19:                                               ; preds = %17
  %20 = icmp eq i32 %12, 0
  br i1 %20, label %21, label %23

21:                                               ; preds = %19
  %22 = call i32 (i8*, ...) @printf(i8* nonnull dereferenceable(1) getelementptr inbounds ([3 x i8], [3 x i8]* @.str, i64 0, i64 0), i32 %13)
  br label %27

23:                                               ; preds = %19
  %24 = call i32 (i8*, ...) @printf(i8* nonnull dereferenceable(1) getelementptr inbounds ([4 x i8], [4 x i8]* @.str.1, i64 0, i64 0), i32 %13)
  br label %27

25:                                               ; preds = %10
  %26 = add nsw i32 %13, 1
  br label %27

27:                                               ; preds = %25, %21, %23, %17
  %28 = phi i32 [ 0, %21 ], [ 0, %23 ], [ 0, %17 ], [ %26, %25 ]
  %29 = phi i32 [ 1, %21 ], [ 1, %23 ], [ %12, %17 ], [ %12, %25 ]
  %30 = icmp eq i64 %14, %9
  br i1 %30, label %31, label %10, !llvm.loop !8

31:                                               ; preds = %27, %0
  call void @llvm.lifetime.end.p0i8(i64 10000, i8* nonnull %2) #6
  ret void
}

; Function Attrs: argmemonly mustprogress nofree nosync nounwind willreturn
declare void @llvm.lifetime.start.p0i8(i64 immarg, i8* nocapture) #1

; Function Attrs: argmemonly mustprogress nofree nounwind willreturn writeonly
declare void @llvm.memset.p0i8.i64(i8* nocapture writeonly, i8, i64, i1 immarg) #2

declare i32 @gets(...) local_unnamed_addr #3

; Function Attrs: argmemonly mustprogress nofree nounwind readonly willreturn
declare i64 @strlen(i8* nocapture) local_unnamed_addr #4

; Function Attrs: nofree nounwind
declare noundef i32 @printf(i8* nocapture noundef readonly, ...) local_unnamed_addr #5

; Function Attrs: argmemonly mustprogress nofree nosync nounwind willreturn
declare void @llvm.lifetime.end.p0i8(i64 immarg, i8* nocapture) #1


!llvm.module.flags = !{!0, !1, !2, !3}
!llvm.ident = !{!4}

!0 = !{i32 1, !"wchar_size", i32 4}
!1 = !{i32 7, !"PIC Level", i32 2}
!2 = !{i32 7, !"PIE Level", i32 2}
!3 = !{i32 7, !"uwtable", i32 1}
!4 = !{!"clang version 13.0.0"}
!5 = !{!6, !6, i64 0}
!6 = !{!"omnipotent char", !7, i64 0}
!7 = !{!"Simple C/C++ TBAA"}
!8 = distinct !{!8, !9}
!9 = !{!"llvm.loop.mustprogress"}
